ARM GAS  C:\Users\POLZOV~1\AppData\Local\Temp\cc1ObHwa.s 			page 1


   1              		.cpu cortex-m3
   2              		.eabi_attribute 20, 1
   3              		.eabi_attribute 21, 1
   4              		.eabi_attribute 23, 3
   5              		.eabi_attribute 24, 1
   6              		.eabi_attribute 25, 1
   7              		.eabi_attribute 26, 1
   8              		.eabi_attribute 30, 1
   9              		.eabi_attribute 34, 1
  10              		.eabi_attribute 18, 4
  11              		.file	"main.cpp"
  12              		.text
  13              	.Ltext0:
  14              		.cfi_sections	.debug_frame
  15              		.section	.text._ZL12MX_GPIO_Initv,"ax",%progbits
  16              		.align	1
  17              		.arch armv7-m
  18              		.syntax unified
  19              		.thumb
  20              		.thumb_func
  21              		.fpu softvfp
  23              	_ZL12MX_GPIO_Initv:
  24              		.fnstart
  25              	.LFB68:
  26              		.file 1 "Core/Src/main.cpp"
   1:Core/Src/main.cpp **** #include "main.h"
   2:Core/Src/main.cpp **** #include "ESP_DATA_HANDLER.h"
   3:Core/Src/main.cpp **** 
   4:Core/Src/main.cpp **** UART_HandleTypeDef huart1;
   5:Core/Src/main.cpp **** 
   6:Core/Src/main.cpp **** void SystemClock_Config(void);
   7:Core/Src/main.cpp **** static void MX_GPIO_Init(void);
   8:Core/Src/main.cpp **** static void MX_USART1_UART_Init(void);
   9:Core/Src/main.cpp **** 
  10:Core/Src/main.cpp **** int main(void)
  11:Core/Src/main.cpp **** {
  12:Core/Src/main.cpp **** 
  13:Core/Src/main.cpp ****   HAL_Init();
  14:Core/Src/main.cpp ****   SystemClock_Config();
  15:Core/Src/main.cpp ****   MX_GPIO_Init();
  16:Core/Src/main.cpp ****   MX_USART1_UART_Init();
  17:Core/Src/main.cpp ****  
  18:Core/Src/main.cpp ****   ESP_Init("Vernite_2007_2.4G","pAkishOh", "192.168.0.8");
  19:Core/Src/main.cpp ****   while (1)
  20:Core/Src/main.cpp ****   {
  21:Core/Src/main.cpp ****     Server_Start();
  22:Core/Src/main.cpp ****   }
  23:Core/Src/main.cpp **** }
  24:Core/Src/main.cpp **** 
  25:Core/Src/main.cpp **** /**
  26:Core/Src/main.cpp ****   * @brief System Clock Configuration
  27:Core/Src/main.cpp ****   * @retval None
  28:Core/Src/main.cpp ****   */
  29:Core/Src/main.cpp **** void SystemClock_Config(void)
  30:Core/Src/main.cpp **** {
  31:Core/Src/main.cpp ****   RCC_OscInitTypeDef RCC_OscInitStruct = {0};
  32:Core/Src/main.cpp ****   RCC_ClkInitTypeDef RCC_ClkInitStruct = {0};
ARM GAS  C:\Users\POLZOV~1\AppData\Local\Temp\cc1ObHwa.s 			page 2


  33:Core/Src/main.cpp **** 
  34:Core/Src/main.cpp ****   /** Initializes the RCC Oscillators according to the specified parameters
  35:Core/Src/main.cpp ****   * in the RCC_OscInitTypeDef structure.
  36:Core/Src/main.cpp ****   */
  37:Core/Src/main.cpp ****   RCC_OscInitStruct.OscillatorType = RCC_OSCILLATORTYPE_HSI;
  38:Core/Src/main.cpp ****   RCC_OscInitStruct.HSIState = RCC_HSI_ON;
  39:Core/Src/main.cpp ****   RCC_OscInitStruct.HSICalibrationValue = RCC_HSICALIBRATION_DEFAULT;
  40:Core/Src/main.cpp ****   RCC_OscInitStruct.PLL.PLLState = RCC_PLL_NONE;
  41:Core/Src/main.cpp ****   if (HAL_RCC_OscConfig(&RCC_OscInitStruct) != HAL_OK)
  42:Core/Src/main.cpp ****   {
  43:Core/Src/main.cpp ****     Error_Handler();
  44:Core/Src/main.cpp ****   }
  45:Core/Src/main.cpp ****   /** Initializes the CPU, AHB and APB buses clocks
  46:Core/Src/main.cpp ****   */
  47:Core/Src/main.cpp ****   RCC_ClkInitStruct.ClockType = RCC_CLOCKTYPE_HCLK | RCC_CLOCKTYPE_SYSCLK | RCC_CLOCKTYPE_PCLK1 | R
  48:Core/Src/main.cpp ****   RCC_ClkInitStruct.SYSCLKSource = RCC_SYSCLKSOURCE_HSI;
  49:Core/Src/main.cpp ****   RCC_ClkInitStruct.AHBCLKDivider = RCC_SYSCLK_DIV1;
  50:Core/Src/main.cpp ****   RCC_ClkInitStruct.APB1CLKDivider = RCC_HCLK_DIV1;
  51:Core/Src/main.cpp ****   RCC_ClkInitStruct.APB2CLKDivider = RCC_HCLK_DIV1;
  52:Core/Src/main.cpp **** 
  53:Core/Src/main.cpp ****   if (HAL_RCC_ClockConfig(&RCC_ClkInitStruct, FLASH_LATENCY_0) != HAL_OK)
  54:Core/Src/main.cpp ****   {
  55:Core/Src/main.cpp ****     Error_Handler();
  56:Core/Src/main.cpp ****   }
  57:Core/Src/main.cpp **** }
  58:Core/Src/main.cpp **** 
  59:Core/Src/main.cpp **** /**
  60:Core/Src/main.cpp ****   * @brief USART1 Initialization Function
  61:Core/Src/main.cpp ****   * @param None
  62:Core/Src/main.cpp ****   * @retval None
  63:Core/Src/main.cpp ****   */
  64:Core/Src/main.cpp **** static void MX_USART1_UART_Init(void)
  65:Core/Src/main.cpp **** {
  66:Core/Src/main.cpp **** 
  67:Core/Src/main.cpp ****   huart1.Instance = USART1;
  68:Core/Src/main.cpp ****   huart1.Init.BaudRate = 115200;
  69:Core/Src/main.cpp ****   huart1.Init.WordLength = UART_WORDLENGTH_8B;
  70:Core/Src/main.cpp ****   huart1.Init.StopBits = UART_STOPBITS_1;
  71:Core/Src/main.cpp ****   huart1.Init.Parity = UART_PARITY_NONE;
  72:Core/Src/main.cpp ****   huart1.Init.Mode = UART_MODE_TX_RX;
  73:Core/Src/main.cpp ****   huart1.Init.HwFlowCtl = UART_HWCONTROL_NONE;
  74:Core/Src/main.cpp ****   huart1.Init.OverSampling = UART_OVERSAMPLING_16;
  75:Core/Src/main.cpp ****   if (HAL_UART_Init(&huart1) != HAL_OK)
  76:Core/Src/main.cpp ****   {
  77:Core/Src/main.cpp ****     Error_Handler();
  78:Core/Src/main.cpp ****   }
  79:Core/Src/main.cpp **** }
  80:Core/Src/main.cpp **** 
  81:Core/Src/main.cpp **** /**
  82:Core/Src/main.cpp ****   * @brief GPIO Initialization Function
  83:Core/Src/main.cpp ****   * @param None
  84:Core/Src/main.cpp ****   * @retval None
  85:Core/Src/main.cpp ****   */
  86:Core/Src/main.cpp **** static void MX_GPIO_Init(void)
  87:Core/Src/main.cpp **** {
  27              		.loc 1 87 1 view -0
  28              		.cfi_startproc
ARM GAS  C:\Users\POLZOV~1\AppData\Local\Temp\cc1ObHwa.s 			page 3


  29              		@ args = 0, pretend = 0, frame = 24
  30              		@ frame_needed = 0, uses_anonymous_args = 0
  31 0000 30B5     		push	{r4, r5, lr}
  32              		.save {r4, r5, lr}
  33              	.LCFI0:
  34              		.cfi_def_cfa_offset 12
  35              		.cfi_offset 4, -12
  36              		.cfi_offset 5, -8
  37              		.cfi_offset 14, -4
  38              		.pad #28
  39 0002 87B0     		sub	sp, sp, #28
  40              	.LCFI1:
  41              		.cfi_def_cfa_offset 40
  88:Core/Src/main.cpp ****   GPIO_InitTypeDef GPIO_InitStruct = {0};
  42              		.loc 1 88 3 view .LVU1
  43              		.loc 1 88 20 is_stmt 0 view .LVU2
  44 0004 0024     		movs	r4, #0
  45 0006 0294     		str	r4, [sp, #8]
  46 0008 0394     		str	r4, [sp, #12]
  47 000a 0494     		str	r4, [sp, #16]
  48 000c 0594     		str	r4, [sp, #20]
  89:Core/Src/main.cpp **** 
  90:Core/Src/main.cpp ****   __HAL_RCC_GPIOC_CLK_ENABLE();
  49              		.loc 1 90 3 is_stmt 1 view .LVU3
  50              	.LBB4:
  51              		.loc 1 90 3 view .LVU4
  52              		.loc 1 90 3 view .LVU5
  53 000e 144B     		ldr	r3, .L3
  54 0010 9A69     		ldr	r2, [r3, #24]
  55 0012 42F01002 		orr	r2, r2, #16
  56 0016 9A61     		str	r2, [r3, #24]
  57              		.loc 1 90 3 view .LVU6
  58 0018 9A69     		ldr	r2, [r3, #24]
  59 001a 02F01002 		and	r2, r2, #16
  60 001e 0092     		str	r2, [sp]
  61              		.loc 1 90 3 view .LVU7
  62 0020 009A     		ldr	r2, [sp]
  63              	.LBE4:
  91:Core/Src/main.cpp ****   __HAL_RCC_GPIOA_CLK_ENABLE();
  64              		.loc 1 91 3 view .LVU8
  65              	.LBB5:
  66              		.loc 1 91 3 view .LVU9
  67              		.loc 1 91 3 view .LVU10
  68 0022 9A69     		ldr	r2, [r3, #24]
  69 0024 42F00402 		orr	r2, r2, #4
  70 0028 9A61     		str	r2, [r3, #24]
  71              		.loc 1 91 3 view .LVU11
  72 002a 9B69     		ldr	r3, [r3, #24]
  73 002c 03F00403 		and	r3, r3, #4
  74 0030 0193     		str	r3, [sp, #4]
  75              		.loc 1 91 3 view .LVU12
  76 0032 019B     		ldr	r3, [sp, #4]
  77              	.LBE5:
  92:Core/Src/main.cpp **** 
  93:Core/Src/main.cpp ****   HAL_GPIO_WritePin(GPIOC, GPIO_PIN_13, GPIO_PIN_RESET);
  78              		.loc 1 93 3 view .LVU13
  79              		.loc 1 93 20 is_stmt 0 view .LVU14
ARM GAS  C:\Users\POLZOV~1\AppData\Local\Temp\cc1ObHwa.s 			page 4


  80 0034 0B4D     		ldr	r5, .L3+4
  81 0036 2246     		mov	r2, r4
  82 0038 4FF40051 		mov	r1, #8192
  83 003c 2846     		mov	r0, r5
  84 003e FFF7FEFF 		bl	HAL_GPIO_WritePin
  85              	.LVL0:
  94:Core/Src/main.cpp **** 
  95:Core/Src/main.cpp ****   GPIO_InitStruct.Pin = GPIO_PIN_13;
  86              		.loc 1 95 3 is_stmt 1 view .LVU15
  87              		.loc 1 95 23 is_stmt 0 view .LVU16
  88 0042 4FF40053 		mov	r3, #8192
  89 0046 0293     		str	r3, [sp, #8]
  96:Core/Src/main.cpp ****   GPIO_InitStruct.Mode = GPIO_MODE_OUTPUT_PP;
  90              		.loc 1 96 3 is_stmt 1 view .LVU17
  91              		.loc 1 96 24 is_stmt 0 view .LVU18
  92 0048 0123     		movs	r3, #1
  93 004a 0393     		str	r3, [sp, #12]
  97:Core/Src/main.cpp ****   GPIO_InitStruct.Pull = GPIO_NOPULL;
  94              		.loc 1 97 3 is_stmt 1 view .LVU19
  95              		.loc 1 97 24 is_stmt 0 view .LVU20
  96 004c 0494     		str	r4, [sp, #16]
  98:Core/Src/main.cpp ****   GPIO_InitStruct.Speed = GPIO_SPEED_FREQ_LOW;
  97              		.loc 1 98 3 is_stmt 1 view .LVU21
  98              		.loc 1 98 25 is_stmt 0 view .LVU22
  99 004e 0223     		movs	r3, #2
 100 0050 0593     		str	r3, [sp, #20]
  99:Core/Src/main.cpp ****   HAL_GPIO_Init(GPIOC, &GPIO_InitStruct);
 101              		.loc 1 99 3 is_stmt 1 view .LVU23
 102              		.loc 1 99 16 is_stmt 0 view .LVU24
 103 0052 02A9     		add	r1, sp, #8
 104 0054 2846     		mov	r0, r5
 105 0056 FFF7FEFF 		bl	HAL_GPIO_Init
 106              	.LVL1:
 100:Core/Src/main.cpp **** }
 107              		.loc 1 100 1 view .LVU25
 108 005a 07B0     		add	sp, sp, #28
 109              	.LCFI2:
 110              		.cfi_def_cfa_offset 12
 111              		@ sp needed
 112 005c 30BD     		pop	{r4, r5, pc}
 113              	.L4:
 114 005e 00BF     		.align	2
 115              	.L3:
 116 0060 00100240 		.word	1073876992
 117 0064 00100140 		.word	1073811456
 118              		.cfi_endproc
 119              	.LFE68:
 120              		.fnend
 122              		.section	.text.Error_Handler,"ax",%progbits
 123              		.align	1
 124              		.global	Error_Handler
 125              		.syntax unified
 126              		.thumb
 127              		.thumb_func
 128              		.fpu softvfp
 130              	Error_Handler:
 131              		.fnstart
ARM GAS  C:\Users\POLZOV~1\AppData\Local\Temp\cc1ObHwa.s 			page 5


 132              	.LFB69:
 101:Core/Src/main.cpp **** 
 102:Core/Src/main.cpp **** /**
 103:Core/Src/main.cpp ****   * @brief  This function is executed in case of error occurrence.
 104:Core/Src/main.cpp ****   * @retval None
 105:Core/Src/main.cpp ****   */
 106:Core/Src/main.cpp **** void Error_Handler(void)
 107:Core/Src/main.cpp **** {
 133              		.loc 1 107 1 is_stmt 1 view -0
 134              		.cfi_startproc
 135              		@ Volatile: function does not return.
 136              		@ args = 0, pretend = 0, frame = 0
 137              		@ frame_needed = 0, uses_anonymous_args = 0
 138              		@ link register save eliminated.
 108:Core/Src/main.cpp **** 
 109:Core/Src/main.cpp ****   __disable_irq();
 139              		.loc 1 109 3 view .LVU27
 140              	.LBB6:
 141              	.LBI6:
 142              		.file 2 "Drivers/CMSIS/Include/cmsis_gcc.h"
   1:Drivers/CMSIS/Include/cmsis_gcc.h **** /**************************************************************************//**
   2:Drivers/CMSIS/Include/cmsis_gcc.h ****  * @file     cmsis_gcc.h
   3:Drivers/CMSIS/Include/cmsis_gcc.h ****  * @brief    CMSIS compiler GCC header file
   4:Drivers/CMSIS/Include/cmsis_gcc.h ****  * @version  V5.0.4
   5:Drivers/CMSIS/Include/cmsis_gcc.h ****  * @date     09. April 2018
   6:Drivers/CMSIS/Include/cmsis_gcc.h ****  ******************************************************************************/
   7:Drivers/CMSIS/Include/cmsis_gcc.h **** /*
   8:Drivers/CMSIS/Include/cmsis_gcc.h ****  * Copyright (c) 2009-2018 Arm Limited. All rights reserved.
   9:Drivers/CMSIS/Include/cmsis_gcc.h ****  *
  10:Drivers/CMSIS/Include/cmsis_gcc.h ****  * SPDX-License-Identifier: Apache-2.0
  11:Drivers/CMSIS/Include/cmsis_gcc.h ****  *
  12:Drivers/CMSIS/Include/cmsis_gcc.h ****  * Licensed under the Apache License, Version 2.0 (the License); you may
  13:Drivers/CMSIS/Include/cmsis_gcc.h ****  * not use this file except in compliance with the License.
  14:Drivers/CMSIS/Include/cmsis_gcc.h ****  * You may obtain a copy of the License at
  15:Drivers/CMSIS/Include/cmsis_gcc.h ****  *
  16:Drivers/CMSIS/Include/cmsis_gcc.h ****  * www.apache.org/licenses/LICENSE-2.0
  17:Drivers/CMSIS/Include/cmsis_gcc.h ****  *
  18:Drivers/CMSIS/Include/cmsis_gcc.h ****  * Unless required by applicable law or agreed to in writing, software
  19:Drivers/CMSIS/Include/cmsis_gcc.h ****  * distributed under the License is distributed on an AS IS BASIS, WITHOUT
  20:Drivers/CMSIS/Include/cmsis_gcc.h ****  * WARRANTIES OR CONDITIONS OF ANY KIND, either express or implied.
  21:Drivers/CMSIS/Include/cmsis_gcc.h ****  * See the License for the specific language governing permissions and
  22:Drivers/CMSIS/Include/cmsis_gcc.h ****  * limitations under the License.
  23:Drivers/CMSIS/Include/cmsis_gcc.h ****  */
  24:Drivers/CMSIS/Include/cmsis_gcc.h **** 
  25:Drivers/CMSIS/Include/cmsis_gcc.h **** #ifndef __CMSIS_GCC_H
  26:Drivers/CMSIS/Include/cmsis_gcc.h **** #define __CMSIS_GCC_H
  27:Drivers/CMSIS/Include/cmsis_gcc.h **** 
  28:Drivers/CMSIS/Include/cmsis_gcc.h **** /* ignore some GCC warnings */
  29:Drivers/CMSIS/Include/cmsis_gcc.h **** #pragma GCC diagnostic push
  30:Drivers/CMSIS/Include/cmsis_gcc.h **** #pragma GCC diagnostic ignored "-Wsign-conversion"
  31:Drivers/CMSIS/Include/cmsis_gcc.h **** #pragma GCC diagnostic ignored "-Wconversion"
  32:Drivers/CMSIS/Include/cmsis_gcc.h **** #pragma GCC diagnostic ignored "-Wunused-parameter"
  33:Drivers/CMSIS/Include/cmsis_gcc.h **** 
  34:Drivers/CMSIS/Include/cmsis_gcc.h **** /* Fallback for __has_builtin */
  35:Drivers/CMSIS/Include/cmsis_gcc.h **** #ifndef __has_builtin
  36:Drivers/CMSIS/Include/cmsis_gcc.h ****   #define __has_builtin(x) (0)
  37:Drivers/CMSIS/Include/cmsis_gcc.h **** #endif
ARM GAS  C:\Users\POLZOV~1\AppData\Local\Temp\cc1ObHwa.s 			page 6


  38:Drivers/CMSIS/Include/cmsis_gcc.h **** 
  39:Drivers/CMSIS/Include/cmsis_gcc.h **** /* CMSIS compiler specific defines */
  40:Drivers/CMSIS/Include/cmsis_gcc.h **** #ifndef   __ASM
  41:Drivers/CMSIS/Include/cmsis_gcc.h ****   #define __ASM                                  __asm
  42:Drivers/CMSIS/Include/cmsis_gcc.h **** #endif
  43:Drivers/CMSIS/Include/cmsis_gcc.h **** #ifndef   __INLINE
  44:Drivers/CMSIS/Include/cmsis_gcc.h ****   #define __INLINE                               inline
  45:Drivers/CMSIS/Include/cmsis_gcc.h **** #endif
  46:Drivers/CMSIS/Include/cmsis_gcc.h **** #ifndef   __STATIC_INLINE
  47:Drivers/CMSIS/Include/cmsis_gcc.h ****   #define __STATIC_INLINE                        static inline
  48:Drivers/CMSIS/Include/cmsis_gcc.h **** #endif
  49:Drivers/CMSIS/Include/cmsis_gcc.h **** #ifndef   __STATIC_FORCEINLINE                 
  50:Drivers/CMSIS/Include/cmsis_gcc.h ****   #define __STATIC_FORCEINLINE                   __attribute__((always_inline)) static inline
  51:Drivers/CMSIS/Include/cmsis_gcc.h **** #endif                                           
  52:Drivers/CMSIS/Include/cmsis_gcc.h **** #ifndef   __NO_RETURN
  53:Drivers/CMSIS/Include/cmsis_gcc.h ****   #define __NO_RETURN                            __attribute__((__noreturn__))
  54:Drivers/CMSIS/Include/cmsis_gcc.h **** #endif
  55:Drivers/CMSIS/Include/cmsis_gcc.h **** #ifndef   __USED
  56:Drivers/CMSIS/Include/cmsis_gcc.h ****   #define __USED                                 __attribute__((used))
  57:Drivers/CMSIS/Include/cmsis_gcc.h **** #endif
  58:Drivers/CMSIS/Include/cmsis_gcc.h **** #ifndef   __WEAK
  59:Drivers/CMSIS/Include/cmsis_gcc.h ****   #define __WEAK                                 __attribute__((weak))
  60:Drivers/CMSIS/Include/cmsis_gcc.h **** #endif
  61:Drivers/CMSIS/Include/cmsis_gcc.h **** #ifndef   __PACKED
  62:Drivers/CMSIS/Include/cmsis_gcc.h ****   #define __PACKED                               __attribute__((packed, aligned(1)))
  63:Drivers/CMSIS/Include/cmsis_gcc.h **** #endif
  64:Drivers/CMSIS/Include/cmsis_gcc.h **** #ifndef   __PACKED_STRUCT
  65:Drivers/CMSIS/Include/cmsis_gcc.h ****   #define __PACKED_STRUCT                        struct __attribute__((packed, aligned(1)))
  66:Drivers/CMSIS/Include/cmsis_gcc.h **** #endif
  67:Drivers/CMSIS/Include/cmsis_gcc.h **** #ifndef   __PACKED_UNION
  68:Drivers/CMSIS/Include/cmsis_gcc.h ****   #define __PACKED_UNION                         union __attribute__((packed, aligned(1)))
  69:Drivers/CMSIS/Include/cmsis_gcc.h **** #endif
  70:Drivers/CMSIS/Include/cmsis_gcc.h **** #ifndef   __UNALIGNED_UINT32        /* deprecated */
  71:Drivers/CMSIS/Include/cmsis_gcc.h ****   #pragma GCC diagnostic push
  72:Drivers/CMSIS/Include/cmsis_gcc.h ****   #pragma GCC diagnostic ignored "-Wpacked"
  73:Drivers/CMSIS/Include/cmsis_gcc.h ****   #pragma GCC diagnostic ignored "-Wattributes"
  74:Drivers/CMSIS/Include/cmsis_gcc.h ****   struct __attribute__((packed)) T_UINT32 { uint32_t v; };
  75:Drivers/CMSIS/Include/cmsis_gcc.h ****   #pragma GCC diagnostic pop
  76:Drivers/CMSIS/Include/cmsis_gcc.h ****   #define __UNALIGNED_UINT32(x)                  (((struct T_UINT32 *)(x))->v)
  77:Drivers/CMSIS/Include/cmsis_gcc.h **** #endif
  78:Drivers/CMSIS/Include/cmsis_gcc.h **** #ifndef   __UNALIGNED_UINT16_WRITE
  79:Drivers/CMSIS/Include/cmsis_gcc.h ****   #pragma GCC diagnostic push
  80:Drivers/CMSIS/Include/cmsis_gcc.h ****   #pragma GCC diagnostic ignored "-Wpacked"
  81:Drivers/CMSIS/Include/cmsis_gcc.h ****   #pragma GCC diagnostic ignored "-Wattributes"
  82:Drivers/CMSIS/Include/cmsis_gcc.h ****   __PACKED_STRUCT T_UINT16_WRITE { uint16_t v; };
  83:Drivers/CMSIS/Include/cmsis_gcc.h ****   #pragma GCC diagnostic pop
  84:Drivers/CMSIS/Include/cmsis_gcc.h ****   #define __UNALIGNED_UINT16_WRITE(addr, val)    (void)((((struct T_UINT16_WRITE *)(void *)(addr))-
  85:Drivers/CMSIS/Include/cmsis_gcc.h **** #endif
  86:Drivers/CMSIS/Include/cmsis_gcc.h **** #ifndef   __UNALIGNED_UINT16_READ
  87:Drivers/CMSIS/Include/cmsis_gcc.h ****   #pragma GCC diagnostic push
  88:Drivers/CMSIS/Include/cmsis_gcc.h ****   #pragma GCC diagnostic ignored "-Wpacked"
  89:Drivers/CMSIS/Include/cmsis_gcc.h ****   #pragma GCC diagnostic ignored "-Wattributes"
  90:Drivers/CMSIS/Include/cmsis_gcc.h ****   __PACKED_STRUCT T_UINT16_READ { uint16_t v; };
  91:Drivers/CMSIS/Include/cmsis_gcc.h ****   #pragma GCC diagnostic pop
  92:Drivers/CMSIS/Include/cmsis_gcc.h ****   #define __UNALIGNED_UINT16_READ(addr)          (((const struct T_UINT16_READ *)(const void *)(add
  93:Drivers/CMSIS/Include/cmsis_gcc.h **** #endif
  94:Drivers/CMSIS/Include/cmsis_gcc.h **** #ifndef   __UNALIGNED_UINT32_WRITE
ARM GAS  C:\Users\POLZOV~1\AppData\Local\Temp\cc1ObHwa.s 			page 7


  95:Drivers/CMSIS/Include/cmsis_gcc.h ****   #pragma GCC diagnostic push
  96:Drivers/CMSIS/Include/cmsis_gcc.h ****   #pragma GCC diagnostic ignored "-Wpacked"
  97:Drivers/CMSIS/Include/cmsis_gcc.h ****   #pragma GCC diagnostic ignored "-Wattributes"
  98:Drivers/CMSIS/Include/cmsis_gcc.h ****   __PACKED_STRUCT T_UINT32_WRITE { uint32_t v; };
  99:Drivers/CMSIS/Include/cmsis_gcc.h ****   #pragma GCC diagnostic pop
 100:Drivers/CMSIS/Include/cmsis_gcc.h ****   #define __UNALIGNED_UINT32_WRITE(addr, val)    (void)((((struct T_UINT32_WRITE *)(void *)(addr))-
 101:Drivers/CMSIS/Include/cmsis_gcc.h **** #endif
 102:Drivers/CMSIS/Include/cmsis_gcc.h **** #ifndef   __UNALIGNED_UINT32_READ
 103:Drivers/CMSIS/Include/cmsis_gcc.h ****   #pragma GCC diagnostic push
 104:Drivers/CMSIS/Include/cmsis_gcc.h ****   #pragma GCC diagnostic ignored "-Wpacked"
 105:Drivers/CMSIS/Include/cmsis_gcc.h ****   #pragma GCC diagnostic ignored "-Wattributes"
 106:Drivers/CMSIS/Include/cmsis_gcc.h ****   __PACKED_STRUCT T_UINT32_READ { uint32_t v; };
 107:Drivers/CMSIS/Include/cmsis_gcc.h ****   #pragma GCC diagnostic pop
 108:Drivers/CMSIS/Include/cmsis_gcc.h ****   #define __UNALIGNED_UINT32_READ(addr)          (((const struct T_UINT32_READ *)(const void *)(add
 109:Drivers/CMSIS/Include/cmsis_gcc.h **** #endif
 110:Drivers/CMSIS/Include/cmsis_gcc.h **** #ifndef   __ALIGNED
 111:Drivers/CMSIS/Include/cmsis_gcc.h ****   #define __ALIGNED(x)                           __attribute__((aligned(x)))
 112:Drivers/CMSIS/Include/cmsis_gcc.h **** #endif
 113:Drivers/CMSIS/Include/cmsis_gcc.h **** #ifndef   __RESTRICT
 114:Drivers/CMSIS/Include/cmsis_gcc.h ****   #define __RESTRICT                             __restrict
 115:Drivers/CMSIS/Include/cmsis_gcc.h **** #endif
 116:Drivers/CMSIS/Include/cmsis_gcc.h **** 
 117:Drivers/CMSIS/Include/cmsis_gcc.h **** 
 118:Drivers/CMSIS/Include/cmsis_gcc.h **** /* ###########################  Core Function Access  ########################### */
 119:Drivers/CMSIS/Include/cmsis_gcc.h **** /** \ingroup  CMSIS_Core_FunctionInterface
 120:Drivers/CMSIS/Include/cmsis_gcc.h ****     \defgroup CMSIS_Core_RegAccFunctions CMSIS Core Register Access Functions
 121:Drivers/CMSIS/Include/cmsis_gcc.h ****   @{
 122:Drivers/CMSIS/Include/cmsis_gcc.h ****  */
 123:Drivers/CMSIS/Include/cmsis_gcc.h **** 
 124:Drivers/CMSIS/Include/cmsis_gcc.h **** /**
 125:Drivers/CMSIS/Include/cmsis_gcc.h ****   \brief   Enable IRQ Interrupts
 126:Drivers/CMSIS/Include/cmsis_gcc.h ****   \details Enables IRQ interrupts by clearing the I-bit in the CPSR.
 127:Drivers/CMSIS/Include/cmsis_gcc.h ****            Can only be executed in Privileged modes.
 128:Drivers/CMSIS/Include/cmsis_gcc.h ****  */
 129:Drivers/CMSIS/Include/cmsis_gcc.h **** __STATIC_FORCEINLINE void __enable_irq(void)
 130:Drivers/CMSIS/Include/cmsis_gcc.h **** {
 131:Drivers/CMSIS/Include/cmsis_gcc.h ****   __ASM volatile ("cpsie i" : : : "memory");
 132:Drivers/CMSIS/Include/cmsis_gcc.h **** }
 133:Drivers/CMSIS/Include/cmsis_gcc.h **** 
 134:Drivers/CMSIS/Include/cmsis_gcc.h **** 
 135:Drivers/CMSIS/Include/cmsis_gcc.h **** /**
 136:Drivers/CMSIS/Include/cmsis_gcc.h ****   \brief   Disable IRQ Interrupts
 137:Drivers/CMSIS/Include/cmsis_gcc.h ****   \details Disables IRQ interrupts by setting the I-bit in the CPSR.
 138:Drivers/CMSIS/Include/cmsis_gcc.h ****            Can only be executed in Privileged modes.
 139:Drivers/CMSIS/Include/cmsis_gcc.h ****  */
 140:Drivers/CMSIS/Include/cmsis_gcc.h **** __STATIC_FORCEINLINE void __disable_irq(void)
 143              		.loc 2 140 27 view .LVU28
 144              	.LBB7:
 141:Drivers/CMSIS/Include/cmsis_gcc.h **** {
 142:Drivers/CMSIS/Include/cmsis_gcc.h ****   __ASM volatile ("cpsid i" : : : "memory");
 145              		.loc 2 142 3 view .LVU29
 146              		.syntax unified
 147              	@ 142 "Drivers/CMSIS/Include/cmsis_gcc.h" 1
 148 0000 72B6     		cpsid i
 149              	@ 0 "" 2
 150              		.thumb
 151              		.syntax unified
ARM GAS  C:\Users\POLZOV~1\AppData\Local\Temp\cc1ObHwa.s 			page 8


 152              	.L6:
 153              	.LBE7:
 154              	.LBE6:
 110:Core/Src/main.cpp ****   while (1)
 155              		.loc 1 110 3 discriminator 1 view .LVU30
 156              		.loc 1 110 3 discriminator 1 view .LVU31
 157 0002 FEE7     		b	.L6
 158              		.cfi_endproc
 159              	.LFE69:
 160              		.cantunwind
 161              		.fnend
 163              		.section	.text._ZL19MX_USART1_UART_Initv,"ax",%progbits
 164              		.align	1
 165              		.syntax unified
 166              		.thumb
 167              		.thumb_func
 168              		.fpu softvfp
 170              	_ZL19MX_USART1_UART_Initv:
 171              		.fnstart
 172              	.LFB67:
  65:Core/Src/main.cpp **** 
 173              		.loc 1 65 1 view -0
 174              		.cfi_startproc
 175              		@ args = 0, pretend = 0, frame = 0
 176              		@ frame_needed = 0, uses_anonymous_args = 0
 177 0000 08B5     		push	{r3, lr}
 178              		.save {r3, lr}
 179              	.LCFI3:
 180              		.cfi_def_cfa_offset 8
 181              		.cfi_offset 3, -8
 182              		.cfi_offset 14, -4
  67:Core/Src/main.cpp ****   huart1.Init.BaudRate = 115200;
 183              		.loc 1 67 3 view .LVU33
  67:Core/Src/main.cpp ****   huart1.Init.BaudRate = 115200;
 184              		.loc 1 67 19 is_stmt 0 view .LVU34
 185 0002 0A48     		ldr	r0, .L11
 186 0004 0A4B     		ldr	r3, .L11+4
 187 0006 0360     		str	r3, [r0]
  68:Core/Src/main.cpp ****   huart1.Init.WordLength = UART_WORDLENGTH_8B;
 188              		.loc 1 68 3 is_stmt 1 view .LVU35
  68:Core/Src/main.cpp ****   huart1.Init.WordLength = UART_WORDLENGTH_8B;
 189              		.loc 1 68 24 is_stmt 0 view .LVU36
 190 0008 4FF4E133 		mov	r3, #115200
 191 000c 4360     		str	r3, [r0, #4]
  69:Core/Src/main.cpp ****   huart1.Init.StopBits = UART_STOPBITS_1;
 192              		.loc 1 69 3 is_stmt 1 view .LVU37
  69:Core/Src/main.cpp ****   huart1.Init.StopBits = UART_STOPBITS_1;
 193              		.loc 1 69 26 is_stmt 0 view .LVU38
 194 000e 0023     		movs	r3, #0
 195 0010 8360     		str	r3, [r0, #8]
  70:Core/Src/main.cpp ****   huart1.Init.Parity = UART_PARITY_NONE;
 196              		.loc 1 70 3 is_stmt 1 view .LVU39
  70:Core/Src/main.cpp ****   huart1.Init.Parity = UART_PARITY_NONE;
 197              		.loc 1 70 24 is_stmt 0 view .LVU40
 198 0012 C360     		str	r3, [r0, #12]
  71:Core/Src/main.cpp ****   huart1.Init.Mode = UART_MODE_TX_RX;
 199              		.loc 1 71 3 is_stmt 1 view .LVU41
ARM GAS  C:\Users\POLZOV~1\AppData\Local\Temp\cc1ObHwa.s 			page 9


  71:Core/Src/main.cpp ****   huart1.Init.Mode = UART_MODE_TX_RX;
 200              		.loc 1 71 22 is_stmt 0 view .LVU42
 201 0014 0361     		str	r3, [r0, #16]
  72:Core/Src/main.cpp ****   huart1.Init.HwFlowCtl = UART_HWCONTROL_NONE;
 202              		.loc 1 72 3 is_stmt 1 view .LVU43
  72:Core/Src/main.cpp ****   huart1.Init.HwFlowCtl = UART_HWCONTROL_NONE;
 203              		.loc 1 72 20 is_stmt 0 view .LVU44
 204 0016 0C22     		movs	r2, #12
 205 0018 4261     		str	r2, [r0, #20]
  73:Core/Src/main.cpp ****   huart1.Init.OverSampling = UART_OVERSAMPLING_16;
 206              		.loc 1 73 3 is_stmt 1 view .LVU45
  73:Core/Src/main.cpp ****   huart1.Init.OverSampling = UART_OVERSAMPLING_16;
 207              		.loc 1 73 25 is_stmt 0 view .LVU46
 208 001a 8361     		str	r3, [r0, #24]
  74:Core/Src/main.cpp ****   if (HAL_UART_Init(&huart1) != HAL_OK)
 209              		.loc 1 74 3 is_stmt 1 view .LVU47
  74:Core/Src/main.cpp ****   if (HAL_UART_Init(&huart1) != HAL_OK)
 210              		.loc 1 74 28 is_stmt 0 view .LVU48
 211 001c C361     		str	r3, [r0, #28]
  75:Core/Src/main.cpp ****   {
 212              		.loc 1 75 3 is_stmt 1 view .LVU49
  75:Core/Src/main.cpp ****   {
 213              		.loc 1 75 20 is_stmt 0 view .LVU50
 214 001e FFF7FEFF 		bl	HAL_UART_Init
 215              	.LVL2:
  75:Core/Src/main.cpp ****   {
 216              		.loc 1 75 3 view .LVU51
 217 0022 00B9     		cbnz	r0, .L10
  79:Core/Src/main.cpp **** 
 218              		.loc 1 79 1 view .LVU52
 219 0024 08BD     		pop	{r3, pc}
 220              	.L10:
  77:Core/Src/main.cpp ****   }
 221              		.loc 1 77 5 is_stmt 1 view .LVU53
  77:Core/Src/main.cpp ****   }
 222              		.loc 1 77 18 is_stmt 0 view .LVU54
 223 0026 FFF7FEFF 		bl	Error_Handler
 224              	.LVL3:
 225              	.L12:
 226 002a 00BF     		.align	2
 227              	.L11:
 228 002c 00000000 		.word	.LANCHOR0
 229 0030 00380140 		.word	1073821696
 230              		.cfi_endproc
 231              	.LFE67:
 232              		.fnend
 234              		.section	.text._Z18SystemClock_Configv,"ax",%progbits
 235              		.align	1
 236              		.global	_Z18SystemClock_Configv
 237              		.syntax unified
 238              		.thumb
 239              		.thumb_func
 240              		.fpu softvfp
 242              	_Z18SystemClock_Configv:
 243              		.fnstart
 244              	.LFB66:
  30:Core/Src/main.cpp ****   RCC_OscInitTypeDef RCC_OscInitStruct = {0};
ARM GAS  C:\Users\POLZOV~1\AppData\Local\Temp\cc1ObHwa.s 			page 10


 245              		.loc 1 30 1 is_stmt 1 view -0
 246              		.cfi_startproc
 247              		@ args = 0, pretend = 0, frame = 64
 248              		@ frame_needed = 0, uses_anonymous_args = 0
 249 0000 00B5     		push	{lr}
 250              		.save {lr}
 251              	.LCFI4:
 252              		.cfi_def_cfa_offset 4
 253              		.cfi_offset 14, -4
 254              		.pad #68
 255 0002 91B0     		sub	sp, sp, #68
 256              	.LCFI5:
 257              		.cfi_def_cfa_offset 72
  31:Core/Src/main.cpp ****   RCC_ClkInitTypeDef RCC_ClkInitStruct = {0};
 258              		.loc 1 31 3 view .LVU56
  31:Core/Src/main.cpp ****   RCC_ClkInitTypeDef RCC_ClkInitStruct = {0};
 259              		.loc 1 31 22 is_stmt 0 view .LVU57
 260 0004 2822     		movs	r2, #40
 261 0006 0021     		movs	r1, #0
 262 0008 06A8     		add	r0, sp, #24
 263 000a FFF7FEFF 		bl	memset
 264              	.LVL4:
  32:Core/Src/main.cpp **** 
 265              		.loc 1 32 3 is_stmt 1 view .LVU58
  32:Core/Src/main.cpp **** 
 266              		.loc 1 32 22 is_stmt 0 view .LVU59
 267 000e 0023     		movs	r3, #0
 268 0010 0193     		str	r3, [sp, #4]
 269 0012 0293     		str	r3, [sp, #8]
 270 0014 0393     		str	r3, [sp, #12]
 271 0016 0493     		str	r3, [sp, #16]
 272 0018 0593     		str	r3, [sp, #20]
  37:Core/Src/main.cpp ****   RCC_OscInitStruct.HSIState = RCC_HSI_ON;
 273              		.loc 1 37 3 is_stmt 1 view .LVU60
  37:Core/Src/main.cpp ****   RCC_OscInitStruct.HSIState = RCC_HSI_ON;
 274              		.loc 1 37 36 is_stmt 0 view .LVU61
 275 001a 0223     		movs	r3, #2
 276 001c 0693     		str	r3, [sp, #24]
  38:Core/Src/main.cpp ****   RCC_OscInitStruct.HSICalibrationValue = RCC_HSICALIBRATION_DEFAULT;
 277              		.loc 1 38 3 is_stmt 1 view .LVU62
  38:Core/Src/main.cpp ****   RCC_OscInitStruct.HSICalibrationValue = RCC_HSICALIBRATION_DEFAULT;
 278              		.loc 1 38 30 is_stmt 0 view .LVU63
 279 001e 0123     		movs	r3, #1
 280 0020 0A93     		str	r3, [sp, #40]
  39:Core/Src/main.cpp ****   RCC_OscInitStruct.PLL.PLLState = RCC_PLL_NONE;
 281              		.loc 1 39 3 is_stmt 1 view .LVU64
  39:Core/Src/main.cpp ****   RCC_OscInitStruct.PLL.PLLState = RCC_PLL_NONE;
 282              		.loc 1 39 41 is_stmt 0 view .LVU65
 283 0022 1023     		movs	r3, #16
 284 0024 0B93     		str	r3, [sp, #44]
  40:Core/Src/main.cpp ****   if (HAL_RCC_OscConfig(&RCC_OscInitStruct) != HAL_OK)
 285              		.loc 1 40 3 is_stmt 1 view .LVU66
  41:Core/Src/main.cpp ****   {
 286              		.loc 1 41 3 view .LVU67
  41:Core/Src/main.cpp ****   {
 287              		.loc 1 41 24 is_stmt 0 view .LVU68
 288 0026 06A8     		add	r0, sp, #24
ARM GAS  C:\Users\POLZOV~1\AppData\Local\Temp\cc1ObHwa.s 			page 11


 289 0028 FFF7FEFF 		bl	HAL_RCC_OscConfig
 290              	.LVL5:
  41:Core/Src/main.cpp ****   {
 291              		.loc 1 41 3 view .LVU69
 292 002c 68B9     		cbnz	r0, .L17
  47:Core/Src/main.cpp ****   RCC_ClkInitStruct.SYSCLKSource = RCC_SYSCLKSOURCE_HSI;
 293              		.loc 1 47 3 is_stmt 1 view .LVU70
  47:Core/Src/main.cpp ****   RCC_ClkInitStruct.SYSCLKSource = RCC_SYSCLKSOURCE_HSI;
 294              		.loc 1 47 31 is_stmt 0 view .LVU71
 295 002e 0F23     		movs	r3, #15
 296 0030 0193     		str	r3, [sp, #4]
  48:Core/Src/main.cpp ****   RCC_ClkInitStruct.AHBCLKDivider = RCC_SYSCLK_DIV1;
 297              		.loc 1 48 3 is_stmt 1 view .LVU72
  48:Core/Src/main.cpp ****   RCC_ClkInitStruct.AHBCLKDivider = RCC_SYSCLK_DIV1;
 298              		.loc 1 48 34 is_stmt 0 view .LVU73
 299 0032 0021     		movs	r1, #0
 300 0034 0291     		str	r1, [sp, #8]
  49:Core/Src/main.cpp ****   RCC_ClkInitStruct.APB1CLKDivider = RCC_HCLK_DIV1;
 301              		.loc 1 49 3 is_stmt 1 view .LVU74
  49:Core/Src/main.cpp ****   RCC_ClkInitStruct.APB1CLKDivider = RCC_HCLK_DIV1;
 302              		.loc 1 49 35 is_stmt 0 view .LVU75
 303 0036 0391     		str	r1, [sp, #12]
  50:Core/Src/main.cpp ****   RCC_ClkInitStruct.APB2CLKDivider = RCC_HCLK_DIV1;
 304              		.loc 1 50 3 is_stmt 1 view .LVU76
  50:Core/Src/main.cpp ****   RCC_ClkInitStruct.APB2CLKDivider = RCC_HCLK_DIV1;
 305              		.loc 1 50 36 is_stmt 0 view .LVU77
 306 0038 0491     		str	r1, [sp, #16]
  51:Core/Src/main.cpp **** 
 307              		.loc 1 51 3 is_stmt 1 view .LVU78
  51:Core/Src/main.cpp **** 
 308              		.loc 1 51 36 is_stmt 0 view .LVU79
 309 003a 0591     		str	r1, [sp, #20]
  53:Core/Src/main.cpp ****   {
 310              		.loc 1 53 3 is_stmt 1 view .LVU80
  53:Core/Src/main.cpp ****   {
 311              		.loc 1 53 26 is_stmt 0 view .LVU81
 312 003c 01A8     		add	r0, sp, #4
 313 003e FFF7FEFF 		bl	HAL_RCC_ClockConfig
 314              	.LVL6:
  53:Core/Src/main.cpp ****   {
 315              		.loc 1 53 3 view .LVU82
 316 0042 20B9     		cbnz	r0, .L18
  57:Core/Src/main.cpp **** 
 317              		.loc 1 57 1 view .LVU83
 318 0044 11B0     		add	sp, sp, #68
 319              	.LCFI6:
 320              		.cfi_remember_state
 321              		.cfi_def_cfa_offset 4
 322              		@ sp needed
 323 0046 5DF804FB 		ldr	pc, [sp], #4
 324              	.L17:
 325              	.LCFI7:
 326              		.cfi_restore_state
  43:Core/Src/main.cpp ****   }
 327              		.loc 1 43 5 is_stmt 1 view .LVU84
  43:Core/Src/main.cpp ****   }
 328              		.loc 1 43 18 is_stmt 0 view .LVU85
ARM GAS  C:\Users\POLZOV~1\AppData\Local\Temp\cc1ObHwa.s 			page 12


 329 004a FFF7FEFF 		bl	Error_Handler
 330              	.LVL7:
 331              	.L18:
  55:Core/Src/main.cpp ****   }
 332              		.loc 1 55 5 is_stmt 1 view .LVU86
  55:Core/Src/main.cpp ****   }
 333              		.loc 1 55 18 is_stmt 0 view .LVU87
 334 004e FFF7FEFF 		bl	Error_Handler
 335              	.LVL8:
 336              		.cfi_endproc
 337              	.LFE66:
 338              		.fnend
 340              		.section	.rodata.main.str1.4,"aMS",%progbits,1
 341              		.align	2
 342              	.LC0:
 343 0000 3139322E 		.ascii	"192.168.0.8\000"
 343      3136382E 
 343      302E3800 
 344              		.align	2
 345              	.LC1:
 346 000c 70416B69 		.ascii	"pAkishOh\000"
 346      73684F68 
 346      00
 347 0015 000000   		.align	2
 348              	.LC2:
 349 0018 5665726E 		.ascii	"Vernite_2007_2.4G\000"
 349      6974655F 
 349      32303037 
 349      5F322E34 
 349      4700
 350              		.section	.text.main,"ax",%progbits
 351              		.align	1
 352              		.global	main
 353              		.syntax unified
 354              		.thumb
 355              		.thumb_func
 356              		.fpu softvfp
 358              	main:
 359              		.fnstart
 360              	.LFB65:
  11:Core/Src/main.cpp **** 
 361              		.loc 1 11 1 is_stmt 1 view -0
 362              		.cfi_startproc
 363              		@ args = 0, pretend = 0, frame = 0
 364              		@ frame_needed = 0, uses_anonymous_args = 0
 365 0000 08B5     		push	{r3, lr}
 366              		.save {r3, lr}
 367              	.LCFI8:
 368              		.cfi_def_cfa_offset 8
 369              		.cfi_offset 3, -8
 370              		.cfi_offset 14, -4
  13:Core/Src/main.cpp ****   SystemClock_Config();
 371              		.loc 1 13 3 view .LVU89
  13:Core/Src/main.cpp ****   SystemClock_Config();
 372              		.loc 1 13 11 is_stmt 0 view .LVU90
 373 0002 FFF7FEFF 		bl	HAL_Init
 374              	.LVL9:
ARM GAS  C:\Users\POLZOV~1\AppData\Local\Temp\cc1ObHwa.s 			page 13


  14:Core/Src/main.cpp ****   MX_GPIO_Init();
 375              		.loc 1 14 3 is_stmt 1 view .LVU91
  14:Core/Src/main.cpp ****   MX_GPIO_Init();
 376              		.loc 1 14 21 is_stmt 0 view .LVU92
 377 0006 FFF7FEFF 		bl	_Z18SystemClock_Configv
 378              	.LVL10:
  15:Core/Src/main.cpp ****   MX_USART1_UART_Init();
 379              		.loc 1 15 3 is_stmt 1 view .LVU93
  15:Core/Src/main.cpp ****   MX_USART1_UART_Init();
 380              		.loc 1 15 15 is_stmt 0 view .LVU94
 381 000a FFF7FEFF 		bl	_ZL12MX_GPIO_Initv
 382              	.LVL11:
  16:Core/Src/main.cpp ****  
 383              		.loc 1 16 3 is_stmt 1 view .LVU95
  16:Core/Src/main.cpp ****  
 384              		.loc 1 16 22 is_stmt 0 view .LVU96
 385 000e FFF7FEFF 		bl	_ZL19MX_USART1_UART_Initv
 386              	.LVL12:
  18:Core/Src/main.cpp ****   while (1)
 387              		.loc 1 18 3 is_stmt 1 view .LVU97
  18:Core/Src/main.cpp ****   while (1)
 388              		.loc 1 18 11 is_stmt 0 view .LVU98
 389 0012 044A     		ldr	r2, .L22
 390 0014 0449     		ldr	r1, .L22+4
 391 0016 0548     		ldr	r0, .L22+8
 392 0018 FFF7FEFF 		bl	_Z8ESP_InitPcS_S_
 393              	.LVL13:
 394              	.L20:
  19:Core/Src/main.cpp ****   {
 395              		.loc 1 19 3 is_stmt 1 discriminator 1 view .LVU99
  21:Core/Src/main.cpp ****   }
 396              		.loc 1 21 5 discriminator 1 view .LVU100
  21:Core/Src/main.cpp ****   }
 397              		.loc 1 21 17 is_stmt 0 discriminator 1 view .LVU101
 398 001c FFF7FEFF 		bl	_Z12Server_Startv
 399              	.LVL14:
  19:Core/Src/main.cpp ****   {
 400              		.loc 1 19 3 is_stmt 1 discriminator 1 view .LVU102
 401 0020 FCE7     		b	.L20
 402              	.L23:
 403 0022 00BF     		.align	2
 404              	.L22:
 405 0024 00000000 		.word	.LC0
 406 0028 0C000000 		.word	.LC1
 407 002c 18000000 		.word	.LC2
 408              		.cfi_endproc
 409              	.LFE65:
 410              		.fnend
 412              		.global	huart1
 413              		.section	.bss.huart1,"aw",%nobits
 414              		.align	2
 415              		.set	.LANCHOR0,. + 0
 418              	huart1:
 419 0000 00000000 		.space	64
 419      00000000 
 419      00000000 
 419      00000000 
ARM GAS  C:\Users\POLZOV~1\AppData\Local\Temp\cc1ObHwa.s 			page 14


 419      00000000 
 420              		.text
 421              	.Letext0:
 422              		.file 3 "c:\\users\\polzovatel\\appdata\\roaming\\gnu_mcu_eclipse\\xpack-arm-none-eabi-gcc-10.2.1-
 423              		.file 4 "c:\\users\\polzovatel\\appdata\\roaming\\gnu_mcu_eclipse\\xpack-arm-none-eabi-gcc-10.2.1-
 424              		.file 5 "Drivers/CMSIS/Device/ST/STM32F1xx/Include/stm32f103xb.h"
 425              		.file 6 "Drivers/CMSIS/Device/ST/STM32F1xx/Include/stm32f1xx.h"
 426              		.file 7 "Drivers/STM32F1xx_HAL_Driver/Inc/stm32f1xx_hal_def.h"
 427              		.file 8 "Drivers/STM32F1xx_HAL_Driver/Inc/stm32f1xx_hal_rcc.h"
 428              		.file 9 "Drivers/STM32F1xx_HAL_Driver/Inc/stm32f1xx_hal_rcc_ex.h"
 429              		.file 10 "Drivers/STM32F1xx_HAL_Driver/Inc/stm32f1xx_hal_gpio.h"
 430              		.file 11 "Drivers/STM32F1xx_HAL_Driver/Inc/stm32f1xx_hal_dma.h"
 431              		.file 12 "Drivers/STM32F1xx_HAL_Driver/Inc/stm32f1xx_hal_uart.h"
 432              		.file 13 "Drivers/STM32F1xx_HAL_Driver/Inc/stm32f1xx_hal.h"
 433              		.file 14 "Core/Inc/ESP_DATA_HANDLER.h"
ARM GAS  C:\Users\POLZOV~1\AppData\Local\Temp\cc1ObHwa.s 			page 15

